(dp0
S'08G-QSS2:Curr1'
p1
I1
sS'02G-QSS3:Curr1'
p2
I1
sS'12G-QSS3:Curr1'
p3
I1
sS'14G-QSS2:Curr1'
p4
I1
sS'01G-QSS4:Curr1'
p5
I1
sS'05G-QSS3:Curr1'
p6
I1
sS'07G-QSS2:Curr1'
p7
I1
sS'amp'
p8
F0.01
sS'03G-QSS3:Curr1'
p9
I1
sS'17G-QSS2:Curr1'
p10
I1
sS'noise'
p11
F0.0001
sS'09G-QSS1:Curr1'
p12
I1
sS'04G-QSS3:Curr1'
p13
I1
sS'11G-QSS3:Curr1'
p14
I1
sS'16G-QSS2:Curr1'
p15
I1
sS'18G-QSS1:Curr1'
p16
I1
sS'10G-QSS4:Curr1'
p17
I1
s.
